target datalayout = "e-m:e-p270:32:32-p271:32:32-p272:64:64-i64:64-i128:128-f80:128-n8:16:32:64-S128"
target triple = "x86_64-pc-linux-gnu"

@hf_nas_eps_spare_bits = internal global i32 0, align 4
@hf_nas_eps_emm_paging_restriction_type = internal global i32 0, align 4

; Function Attrs: null_pointer_is_valid sspstrong uwtable
define internal zeroext i16 @de_emm_paging_restriction(ptr noundef %0, ptr noundef %1, ptr noundef %2, i32 noundef %3, i32 noundef %4, ptr noundef %5, i32 noundef %6) #1 {
  %8 = alloca ptr, align 8
  %9 = alloca ptr, align 8
  %10 = alloca ptr, align 8
  %11 = alloca i32, align 4
  %12 = alloca i32, align 4
  %13 = alloca ptr, align 8
  %14 = alloca i32, align 4
  %15 = alloca i64, align 8
  %16 = alloca i32, align 4
  store ptr %0, ptr %8, align 8
  store ptr %1, ptr %9, align 8
  store ptr %2, ptr %10, align 8
  store i32 %3, ptr %11, align 4
  store i32 %4, ptr %12, align 4
  store ptr %5, ptr %13, align 8
  store i32 %6, ptr %14, align 4
  call void @llvm.lifetime.start.p0(i64 8, ptr %15) #10
  call void @llvm.lifetime.start.p0(i64 4, ptr %16) #10
  %17 = load i32, ptr %11, align 4
  store i32 %17, ptr %16, align 4
  %18 = load ptr, ptr %9, align 8
  %19 = load i32, ptr @hf_nas_eps_spare_bits, align 4
  %20 = load ptr, ptr %8, align 8
  %21 = load i32, ptr %16, align 4
  %22 = shl i32 %21, 3
  %23 = call ptr @proto_tree_add_bits_item(ptr noundef %18, i32 noundef %19, ptr noundef %20, i32 noundef %22, i32 noundef 4, i32 noundef 0)
  %24 = load ptr, ptr %9, align 8
  %25 = load i32, ptr @hf_nas_eps_emm_paging_restriction_type, align 4
  %26 = load ptr, ptr %8, align 8
  %27 = load i32, ptr %16, align 4
  %28 = shl i32 %27, 3
  %29 = add i32 %28, 4
  %30 = call ptr @proto_tree_add_bits_ret_val(ptr noundef %24, i32 noundef %25, ptr noundef %26, i32 noundef %29, i32 noundef 4, ptr noundef %15, i32 noundef 0)
  %31 = load i32, ptr %16, align 4
  %32 = add i32 %31, 1
  store i32 %32, ptr %16, align 4
  %33 = load i64, ptr %15, align 8
  %34 = icmp eq i64 %33, 3
  br i1 %34, label %38, label %35

35:                                               ; preds = %7
  %36 = load i64, ptr %15, align 8
  %37 = icmp eq i64 %36, 4
  br i1 %37, label %38, label %44

38:                                               ; preds = %35, %7
  %39 = load ptr, ptr %9, align 8
  %40 = load ptr, ptr %8, align 8
  %41 = load i32, ptr %16, align 4
  call void @proto_tree_add_bitmask_list(ptr noundef %39, ptr noundef %40, i32 noundef %41, i32 noundef 2, ptr noundef @de_emm_paging_restriction.flags, i32 noundef 0)
  %42 = load i32, ptr %16, align 4
  %43 = add i32 %42, 2
  store i32 %43, ptr %16, align 4
  br label %44

44:                                               ; preds = %38, %35
  %45 = load i32, ptr %16, align 4
  %46 = load i32, ptr %11, align 4
  %47 = sub i32 %45, %46
  %48 = trunc i32 %47 to i16
  call void @llvm.lifetime.end.p0(i64 4, ptr %16) #10
  call void @llvm.lifetime.end.p0(i64 8, ptr %15) #10
  ret i16 %48
}