; Function Attrs: null_pointer_is_valid sspstrong uwtable
define internal noundef zeroext i16 @de_emm_paging_restriction(ptr noundef %0, ptr noundef %1, ptr readnone captures(none) %2, i32 noundef %3, i32 %4, ptr readnone captures(none) %5, i32 %6) #1 {
  %8 = alloca i64, align 8
  call void @llvm.lifetime.start.p0(i64 8, ptr nonnull %8) #10
  %9 = load i32, ptr @hf_nas_eps_spare_bits, align 4
  %10 = shl i32 %3, 3
  %11 = tail call ptr @proto_tree_add_bits_item(ptr noundef %1, i32 noundef %9, ptr noundef %0, i32 noundef %10, i32 noundef 4, i32 noundef 0)
  %12 = load i32, ptr @hf_nas_eps_emm_paging_restriction_type, align 4
  %13 = or disjoint i32 %10, 4
  %14 = call ptr @proto_tree_add_bits_ret_val(ptr noundef %1, i32 noundef %12, ptr noundef %0, i32 noundef %13, i32 noundef 4, ptr noundef nonnull %8, i32 noundef 0)
  %15 = add i32 %3, 1
  %16 = load i64, ptr %8, align 8
  %17 = add i64 %16, -3
  %or.cond = icmp ult i64 %17, 2
  br i1 %or.cond, label %18, label %20

18:                                               ; preds = %7
  call void @proto_tree_add_bitmask_list(ptr noundef %1, ptr noundef %0, i32 noundef %15, i32 noundef 2, ptr noundef nonnull @de_emm_paging_restriction.flags, i32 noundef 0)
  %19 = add i32 %3, 3
  br label %20

20:                                               ; preds = %7, %18
  %.0 = phi i32 [ %19, %18 ], [ %15, %7 ]
  %21 = sub i32 %.0, %3
  %22 = trunc i32 %21 to i16
  call void @llvm.lifetime.end.p0(i64 8, ptr nonnull %8) #10
  ret i16 %22
}